(dp0
S'interiorloops'
p1
(lp2
F0.091200000000000003
aF0.079500000000000001
aF0.075999999999999998
aF0.079399999999999998
aF0.055599999999999997
aF0.091300000000000006
aF0.080199999999999994
aF0.093200000000000005
aF0.1134
aF0.1613
aF0.1089
aF0.073400000000000007
aF0.127
aF0.16439999999999999
aF0.22500000000000001
aF0.14649999999999999
aF0.068099999999999994
aF0.046899999999999997
aF0.12130000000000001
aF0.15049999999999999
aF0.080799999999999997
aF0.044400000000000002
aF0.073300000000000004
aF0.1128
aF0.1535
aF0.1736
aF0.1343
aF0.064199999999999993
aF-0.2031
aF0.1217
aF0.1043
aF0.25969999999999999
aF0.22739999999999999
aF0.183
aF0.051200000000000002
aF0.21079999999999999
aF0.66620000000000001
aF0.92059999999999997
aF0.27029999999999998
aF0.0453
aF0.1142
aF0.38990000000000002
aF0.55179999999999996
aF0.28110000000000002
aF0.1212
aF0.187
aF0.070599999999999996
aF0.13780000000000001
aF0.16109999999999999
aF0.094600000000000004
aF0.1424
aF0.13830000000000001
aF0.19889999999999999
aF0.83730000000000004
aF0.50790000000000002
aF0.23530000000000001
aF0.39450000000000002
aF0.47589999999999999
aF0.11840000000000001
aF0.24729999999999999
aF0.35160000000000002
aF0.37830000000000003
aF0.45050000000000001
aF0.36399999999999999
aF0.18260000000000001
aF2.5177999999999998
aF0.80689999999999995
aF0.57689999999999997
aF2.3531
aF0.628
aF0.29210000000000003
aF0.48920000000000002
aF3.4828999999999999
aF3.3685999999999998
aF0.36699999999999999
aF0.41909999999999997
aF0.50380000000000003
aF0.91849999999999998
aF0.97170000000000001
aF0.084599999999999995
aF0.16339999999999999
aF0.2306
aF0.1273
aF0.21679999999999999
aF0.1152
aF0.82020000000000004
aF0.88929999999999998
aF0.2271
aF0.45569999999999999
aF0.67569999999999997
aF0.015699999999999999
aF0.037600000000000001
aF0.0263
aF0.16020000000000001
aF0.060100000000000001
aF0.0155
aF0.042700000000000002
aF2.3933
aF0.58379999999999999
aF0.75039999999999996
aF2.1225999999999998
aF0.23980000000000001
aF0.11700000000000001
aF0.67689999999999995
aF5.8156999999999996
aF5.4917999999999996
aF0.1293
aF0.2666
aF0.25180000000000002
aF1.0620000000000001
aF0.69140000000000001
aF-0.0079000000000000008
aF0.039100000000000003
aF0.088800000000000004
aF0.23769999999999999
aF0.2296
aF0.13239999999999999
aF0.60760000000000003
aF0.79559999999999997
aF0.35930000000000001
aF0.49049999999999999
aF0.65769999999999995
aF0.38479999999999998
aF0.20150000000000001
aF0.14829999999999999
aF0.17480000000000001
aF0.45950000000000002
aF0.51090000000000002
aF0.4103
aF0.14949999999999999
aF0.37230000000000002
aF0.24160000000000001
aF0.094100000000000003
aF0.1128
aF0.1555
aF0.25769999999999998
aF0.1618
aF0.436
aF0.63349999999999995
aF0.497
aF0.32129999999999997
aF0.45760000000000001
aF0.52790000000000004
aF0.1074
aF0.22489999999999999
aF0.089300000000000004
aF0.037199999999999997
aF0.29609999999999997
aF0.29899999999999999
aF0.18210000000000001
aF0.047800000000000002
aF0.10780000000000001
aF0.051499999999999997
aF0.062199999999999998
aF0.037100000000000001
aF0.030499999999999999
aF0.053999999999999999
aF0.079399999999999998
aF0.1583
aF0.14599999999999999
aF0.1411
aF0.1048
aF0.057500000000000002
aF0.16239999999999999
asS'hairpins'
p3
(lp4
F0.3175
aF0.63890000000000002
aF1.6744000000000001
aF2.2158000000000002
aF0.15570000000000001
aF0.24829999999999999
aF0.29470000000000002
aF0.19370000000000001
aF0.055199999999999999
aF1.1564000000000001
aF1.0674999999999999
aF2.3786
aF1.3129
aF0.37130000000000002
aF1.7787999999999999
aF0.92010000000000003
aF0.76060000000000005
aF1.2049000000000001
aF0.6089
aF1.0088999999999999
aF1.278
aF2.0392999999999999
aF0.32900000000000001
aF0.39090000000000003
aF0.76949999999999996
aF0.49070000000000003
aF0.59140000000000004
aF0.81969999999999998
aF1.2391000000000001
aF2.3628999999999998
aF1.2342
aF0.214
aF2.0836000000000001
aF1.8089
aF1.0202
aF1.5396000000000001
aF0.45329999999999998
aF0.45369999999999999
aF0.2586
aF0.2858
aF0.47039999999999998
aF1.0267999999999999
aF0.40010000000000001
aF0.22140000000000001
aF0.26279999999999998
aF0.23430000000000001
aF0.35089999999999999
aF2.5226000000000002
aF0.67179999999999995
aF0.1845
aF0.20649999999999999
aF0.2132
aF0.59899999999999998
aF0.64929999999999999
aF0.37759999999999999
aF0.26279999999999998
aF0.70179999999999998
aF1.0546
aF0.54990000000000006
aF0.26279999999999998
aF0.34370000000000001
aF0.23780000000000001
aF0.37119999999999997
aF2.0684
aF0.90600000000000003
aF0.48089999999999999
aF0.17269999999999999
aF0.29010000000000002
aF0.071099999999999997
aF0.2205
aF0.2026
aF0.1888
aF0.2238
aF0.74209999999999998
aF2.7574999999999998
aF1.9221999999999999
aF1.9817
aF1.2842
aF0.63260000000000005
aF1.7947
aF0.25540000000000002
aF0.091499999999999998
aF0.29189999999999999
aF0.25600000000000001
aF0.25219999999999998
aF0.2429
aF0.64859999999999995
aF2.2509000000000001
aF1.839
aF1.5718000000000001
aF1.3949
aF0.75190000000000001
aF1.4648000000000001
aF0.25950000000000001
aF0.022499999999999999
aF0.1956
aF0.16370000000000001
aF0.13650000000000001
aF0.1361
aF2.0501
aF0.58889999999999998
aF0.315
aF0.42499999999999999
aF0.53559999999999997
aF0.32690000000000002
aF3.3895
aF1.3048999999999999
aF1.4803999999999999
aF0.12759999999999999
aF0.12239999999999999
aF0.0504
aF0.045699999999999998
aF0.35709999999999997
aF2.2458
aF0.3175
aF0.13120000000000001
aF0.22889999999999999
aF0.25330000000000003
aF0.23599999999999999
aF2.1190000000000002
aF2.0804999999999998
aF0.43369999999999997
aF0.53039999999999998
aF0.39279999999999998
aF0.22359999999999999
aF0.42899999999999999
aF0.36849999999999999
aF0.27510000000000001
aF0.27989999999999998
aF0.28389999999999999
aF0.16439999999999999
aF0.35170000000000001
aF0.59960000000000002
aF0.42970000000000003
aF0.26190000000000002
aF0.54349999999999998
aF1.1607000000000001
aF1.0794999999999999
aF0.2051
aF-0.0074000000000000003
aF0.084199999999999997
aF0.0625
aF0.36259999999999998
aF0.41789999999999999
aF0.4289
aF0.047100000000000003
aF0.14979999999999999
aF0.21190000000000001
aF0.3473
aF0.30080000000000001
aF0.19570000000000001
aF1.6444000000000001
aF1.4127000000000001
aF0.97309999999999997
aF-0.10589999999999999
aF-0.017999999999999999
aF0.82010000000000005
aF1.2964
aF0.70879999999999999
aF0.97119999999999995
aF1.5077
aF0.37730000000000002
aF0.35299999999999998
aF0.43559999999999999
aF2.0045999999999999
aF2.8666
aF2.3296000000000001
aF2.1229
aF1.0389999999999999
aF3.3222
aF0.41820000000000002
aF0.1716
aF0.4592
aF0.25430000000000003
aF-0.025399999999999999
aF0.086199999999999999
aF0.042999999999999997
aF-0.18090000000000001
asS'3wayjunctions'
p5
(lp6
F0.073400000000000007
aF0.1011
aF0.082900000000000001
aF0.24610000000000001
aF0.71040000000000003
aF2.1339000000000001
aF0.083199999999999996
aF0.36830000000000002
aF0.028500000000000001
aF0.1042
aF0.16880000000000001
aF0.12670000000000001
aF0.184
aF0.14530000000000001
aF0.092399999999999996
aF0.1396
aF0.1013
aF0.086999999999999994
aF0.15229999999999999
aF0.3831
aF0.77459999999999996
aF0.064500000000000002
aF0.23130000000000001
aF0.17480000000000001
aF0.11700000000000001
aF0.1336
aF0.1832
aF0.15529999999999999
aF0.1244
aF0.082100000000000006
aF0.12870000000000001
aF0.74429999999999996
aF0.86329999999999996
aF0.79830000000000001
aF1.6474
aF0.078799999999999995
aF0.34999999999999998
aF-0.024199999999999999
aF0.19789999999999999
aF0.32800000000000001
aF0.22439999999999999
aF0.36670000000000003
aF0.45669999999999999
aF0.24679999999999999
aF0.42759999999999998
aF0.46450000000000002
aF0.51659999999999995
aF0.495
aF0.4294
aF0.60350000000000004
aF0.13780000000000001
aF0.52910000000000001
aF0.58069999999999999
aF0.53569999999999995
aF0.38069999999999998
aF0.3347
aF0.4365
aF0.28299999999999997
aF0.34410000000000002
aF0.46250000000000002
aF0.22950000000000001
aF0.2099
aF0.82920000000000005
aF2.6855000000000002
aF0.45779999999999998
aF0.2762
aF0.34560000000000002
aF0.26340000000000002
aF0.1333
aF0.3407
aF0.43130000000000002
aF1.2386999999999999
aF0.53600000000000003
aF0.41470000000000001
aF0.20269999999999999
aF0.69220000000000004
aF1.4015
aF0.81210000000000004
aF0.66279999999999994
aF1.4459
aF0.55869999999999997
aF0.28050000000000003
aF0.52110000000000001
aF0.67010000000000003
aF0.0047000000000000002
aF0.1109
aF0.1167
aF0.16009999999999999
aF0.1053
aF0.090899999999999995
aF0.0154
aF0.076399999999999996
aF0.0659
aF0.21110000000000001
aF0.2429
aF-0.0041000000000000003
aF0.28139999999999998
aF0.38919999999999999
aF0.28670000000000001
aF0.33629999999999999
aF0.19220000000000001
aF0.27200000000000002
aF0.57989999999999997
aF0.36009999999999998
aF0.35499999999999998
aF1.7766999999999999
aF0.76829999999999998
aF0.0385
aF0.127
aF0.20499999999999999
aF0.14410000000000001
aF0.094100000000000003
aF0.30790000000000001
aF0.72950000000000004
aF6.2760999999999996
aF2.0095999999999998
aF-0.0058999999999999999
aF-0.0172
aF0.033300000000000003
aF-0.047
aF0.2495
aF1.1488
aF13.703099999999999
aF1.8694999999999999
aF0.23949999999999999
aF0.15310000000000001
aF0.2752
aF0.33579999999999999
aF0.73619999999999997
aF0.35220000000000001
aF0.3508
aF0.84489999999999998
aF0.50939999999999996
aF0.041000000000000002
aF0.16669999999999999
aF0.25309999999999999
aF0.37290000000000001
aF0.3296
aF0.18690000000000001
aF0.25829999999999997
aF1.0127999999999999
aF0.4536
asS'4wayjunctions'
p7
(lp8
F0.34699999999999998
aF0.3715
aF0.30809999999999998
aF0.34989999999999999
aF0.21379999999999999
aF-0.0043
aF0.57099999999999995
aF0.3478
aF0.1716
aF0.4592
aF0.25430000000000003
aF-0.025399999999999999
aF0.086199999999999999
aF0.042999999999999997
aF-0.18090000000000001
aF0.58930000000000005
aF0.078299999999999995
aF0.3367
aF0.15720000000000001
aF-0.0051999999999999998
aF0.34699999999999998
aF0.3715
aF0.30809999999999998
aF0.34989999999999999
aF0.21379999999999999
aF-0.0043
aF0.57099999999999995
aF0.3478
aF0.1716
aF0.4592
aF0.25430000000000003
aF-0.025399999999999999
aF0.086199999999999999
aF0.042999999999999997
aF-0.18090000000000001
aF0.58930000000000005
aF0.078299999999999995
aF0.3367
aF0.15720000000000001
aF-0.0051999999999999998
aF0.34699999999999998
aF0.3715
aF0.30809999999999998
aF0.34989999999999999
aF0.21379999999999999
aF-0.0043
aF0.57099999999999995
aF0.3478
aF0.1716
aF0.4592
aF0.25430000000000003
aF-0.025399999999999999
aF0.086199999999999999
aF0.042999999999999997
aF-0.18090000000000001
aF0.58930000000000005
aF0.078299999999999995
aF0.3367
aF0.15720000000000001
aF-0.0051999999999999998
asS'bulges'
p9
(lp10
F0.4627
aF0.43919999999999998
aF0.17169999999999999
aF0.157
aF0.2777
aF0.26400000000000001
aF0.94359999999999999
aF0.70150000000000001
aF0.1227
aF0.31119999999999998
aF0.41970000000000002
aF0.23419999999999999
aF1.8781000000000001
aF2.4691000000000001
aF2.1547000000000001
aF1.4180999999999999
aF0.74590000000000001
aF0.84989999999999999
aF1.1659999999999999
aF0.878
aF1.0270999999999999
aF1.8346
asS'dangles'
p11
(lp12
F0.4526
aF0.2863
aF0.44130000000000003
aF0.58560000000000001
aF1.1545000000000001
aF0.2702
aF1.2944
aF0.52100000000000002
aF1.1706000000000001
aF-0.028799999999999999
aF-0.18379999999999999
aF0.086300000000000002
aF0.61839999999999995
aF0.98860000000000003
aF1.7918000000000001
aF1.1052
aF0.127
aF0.47139999999999999
aF1.0494000000000001
aF0.62129999999999996
aF0.90169999999999995
aF0.46660000000000001
aF1.0578000000000001
aF1.5376000000000001
aF1.1775
aF0.98140000000000005
aF0.61470000000000002
aF1.0337000000000001
aF1.3741000000000001
aF0.42620000000000002
aF0.1555
aF0.33479999999999999
aF0.1958
aF0.85429999999999995
aF1.1291
aF0.54779999999999995
aF0.77280000000000004
aF0.84289999999999998
aF0.87129999999999996
aF0.41189999999999999
aF0.2036
aF0.52680000000000005
aF1.4833000000000001
aF1.8200000000000001
aF1.1633
aF0.871
aF0.6583
aF1.0218
aF1.2424999999999999
aF0.4239
aF0.184
aF0.40739999999999998
aF0.25059999999999999
aF0.78890000000000005
aF1.0366
aF0.57430000000000003
aF0.69830000000000003
aF0.84699999999999998
aF1.2218
aF0.94410000000000005
aF0.436
aF0.3075
aF-0.28170000000000001
aF0.38700000000000001
aF0.255
aF1.0896999999999999
aF1.8617999999999999
aF0.99629999999999996
aF0.2903
aF0.62770000000000004
aF0.078299999999999995
aF0.27950000000000003
aF0.36670000000000003
aF2.2120000000000002
aF0.76259999999999994
aF0.61890000000000001
aF0.64410000000000001
aF0.61380000000000001
aF0.28199999999999997
aF0.21629999999999999
aF0.18629999999999999
aF0.68510000000000004
aF0.84619999999999995
aF0.75129999999999997
aF0.7601
aF0.54039999999999999
aF0.78590000000000004
aF0.77339999999999998
aF0.76780000000000004
aF0.96120000000000005
aF0.2021
aF0.031600000000000003
aF0.44469999999999998
aF0.55069999999999997
aF0.29749999999999999
aF0.61370000000000002
aF0.095200000000000007
aF0.1913
aF0.23269999999999999
aF0.2104
aF0.47910000000000003
aF0.39169999999999999
aF0.55879999999999996
aF0.46429999999999999
aF0.36699999999999999
aF0.46999999999999997
aF-0.12770000000000001
aF0.47599999999999998
aF0.40179999999999999
aF1.0196000000000001
aF1.1208
aF1.2206999999999999
aF0.6119
aF1.1020000000000001
aF0.76129999999999998
aF0.64100000000000001
aF0.30909999999999999
aF0.25259999999999999
aF0.27329999999999999
aF0.21099999999999999
aF0.37009999999999998
aF0.4859
aF0.5595
aF0.59230000000000005
aF0.71719999999999995
aF0.59970000000000001
aF0.43780000000000002
aF0.2429
aF0.6139
aF1.0638000000000001
aF0.9829
aF1.0677000000000001
aF-0.062799999999999995
aF0.91769999999999996
asS'5wayjunctions'
p13
(lp14
sS'helices'
p15
(lp16
F0.13420000000000001
aF0.73450000000000004
aF0.21640000000000001
aF0.28210000000000002
aF0.14990000000000001
aF0.126
aF0.070599999999999996
aF0.068500000000000005
aF0.16619999999999999
aF0.059299999999999999
aF0.26690000000000003
aF0.063799999999999996
aF0.12939999999999999
aF0.077499999999999999
aF0.096699999999999994
aF0.083400000000000002
aF0.063200000000000006
aF0.055
aF0.0511
aF0.055599999999999997
aF0.0037000000000000002
aF0.029600000000000001
aF0.060199999999999997
aF0.062100000000000002
aF0.043099999999999999
aF0.063399999999999998
aF0.080100000000000005
aF0.019800000000000002
aF0.090700000000000003
aF0.045900000000000003
aF0.080500000000000002
aF0.064799999999999996
aF0.086499999999999994
aF0.042099999999999999
aF0.098900000000000002
aF0.087900000000000006
aF0.1452
aF0.1203
aF0.29170000000000001
aF0.20219999999999999
aF0.18310000000000001
aF0.1157
aF0.1285
aF0.16250000000000001
aF0.097500000000000003
aF0.15459999999999999
aF0.14419999999999999
aF0.0785
aF0.10340000000000001
aF0.15060000000000001
aF0.26700000000000002
aF0.4924
aF0.1731
aF0.17780000000000001
aF0.1045
aF0.094600000000000004
aF0.086199999999999999
aF0.056500000000000002
aF0.092399999999999996
aF0.087499999999999994
aF0.094700000000000006
aF-0.0023999999999999998
aF0.14319999999999999
aF0.024
aF0.0528
aF0.025499999999999998
aF0.044400000000000002
aF0.052600000000000001
aF0.042200000000000001
aF0.12809999999999999
aF0.076499999999999999
aF0.21820000000000001
aF0.20530000000000001
aF0.0106
aF0.0033999999999999998
aF0.1842
aF0.059200000000000003
aF0.1421
aF0.041200000000000001
aF0.061499999999999999
aF0.18720000000000001
aF0.62709999999999999
aF0.1084
aF0.28610000000000002
aF0.095000000000000001
aF0.1893
aF0.050099999999999999
aF0.1807
aF0.1391
aF0.15770000000000001
aF0.28739999999999999
aF0.1148
aF0.30580000000000002
aF0.0424
aF0.15820000000000001
aF0.2364
aF0.1045
aF0.076200000000000004
aF0.0327
aF0.065799999999999997
aF0.026599999999999999
aF0.079000000000000001
aF0.0693
aF0.11210000000000001
aF0.057500000000000002
aF0.070800000000000002
aF0.082600000000000007
aF0.0206
aF0.050200000000000002
aF-0.0088000000000000005
aF0.0785
aF0.059799999999999999
aF0.083199999999999996
aF0.0286
aF0.1132
aF0.088900000000000007
aF0.20660000000000001
aF0.095000000000000001
aF0.59719999999999995
aF0.40400000000000003
aF0.13139999999999999
aF0.24410000000000001
aF0.247
aF0.27310000000000001
aF0.3029
aF0.12720000000000001
aF0.2576
aF0.1953
aF0.2288
aF0.3024
aF0.49490000000000001
aF0.65710000000000002
aF0.16059999999999999
aF0.23710000000000001
aF0.067500000000000004
aF0.1114
aF0.063500000000000001
aF0.0562
aF0.16669999999999999
aF0.070900000000000005
aF0.15579999999999999
aF0.0061999999999999998
aF0.31690000000000002
aF0.016899999999999998
aF0.0023999999999999998
aF-0.033599999999999998
aF0.055
aF0.13750000000000001
aF0.1147
aF0.48549999999999999
aF0.15659999999999999
aF0.2823
aF0.1197
aF0.44750000000000001
aF-0.90449999999999997
aF0.94169999999999998
aF-2.9584999999999999
aF0.41889999999999999
aF-3.5474999999999999
aF1.3687
aF0.14430000000000001
aF0.29089999999999999
aF0.13089999999999999
aF0.30969999999999998
aF0.16309999999999999
aF0.1246
aF0.1288
aF0.16
aF0.092899999999999996
aF0.21329999999999999
aF0.1575
aF0.2041
aF0.12280000000000001
aF0.15570000000000001
aF0.161
aF0.050299999999999997
aF0.13750000000000001
aF0.11840000000000001
aF0.13819999999999999
aF0.15770000000000001
aF0.10680000000000001
aF0.16650000000000001
aF0.11020000000000001
aF0.2651
aF0.0395
aF0.31130000000000002
aF0.060600000000000001
aF0.1943
aF0.070300000000000001
aF0.27560000000000001
aF0.032899999999999999
aF0.1986
aF0.15049999999999999
aF0.28839999999999999
aF0.085900000000000004
aF0.29239999999999999
aF0.0043
aF0.0557
aF0.121
aF0.26479999999999998
aF0.13830000000000001
aF0.44180000000000003
aF0.22770000000000001
aF0.33860000000000001
aF0.17280000000000001
aF0.35680000000000001
aF0.21540000000000001
aF0.22869999999999999
aF0.1084
aF0.2104
aF0.0901
aF0.29809999999999998
aF0.2218
aF0.3422
aF0.1293
aF0.1686
aF0.1943
aF0.064000000000000001
aF0.12720000000000001
aF0.14499999999999999
aF0.18260000000000001
aF0.20269999999999999
aF0.13020000000000001
aF0.25280000000000002
aF0.1137
aF0.41299999999999998
aF0.11119999999999999
aF0.42720000000000002
aF0.076899999999999996
aF0.2225
aF0.085000000000000006
aF0.2611
aF0.076700000000000004
aF0.23000000000000001
aF0.15629999999999999
aF0.2455
aF0.060900000000000003
aF0.38550000000000001
aF-0.0030999999999999999
aF0.0557
aF0.11020000000000001
aF0.23999999999999999
aF0.056800000000000003
aF0.40679999999999999
aF0.091899999999999996
aF0.093700000000000006
aF0.0659
aF0.088099999999999998
aF0.1104
aF0.084699999999999998
aF0.081299999999999997
aF0.062399999999999997
aF0.084900000000000003
aF0.022700000000000001
aF0.1187
aF0.052499999999999998
aF0.27610000000000001
aF0.087900000000000006
aF0.086800000000000002
aF0.088499999999999995
aF0.24660000000000001
aF0.0901
aF0.12640000000000001
aF0.064799999999999996
aF0.30990000000000001
aF0.14099999999999999
aF0.1016
aF0.11070000000000001
aF0.072499999999999995
aF0.028400000000000002
aF0.080199999999999994
aF0.055300000000000002
aF0.1734
aF0.1004
aF0.13370000000000001
aF0.1105
aF0.088099999999999998
aF0.092499999999999999
aF0.22389999999999999
aF0.10920000000000001
aF0.086400000000000005
aF0.20319999999999999
aF0.1658
aF0.215
aF0.10829999999999999
aF0.067299999999999999
aF0.2102
aF0.21279999999999999
aF0.31430000000000002
aF0.091899999999999996
aF0.155
aF0.78700000000000003
aF0.24399999999999999
aF0.27739999999999998
aF0.15970000000000001
aF0.099099999999999994
aF0.0683
aF0.095899999999999999
aF0.084599999999999995
aF0.082500000000000004
aF0.080699999999999994
aF0.086599999999999996
aF0.1741
aF0.047500000000000001
aF0.1913
aF0.21129999999999999
aF0.30459999999999998
aF0.6542
aF0.1195
aF0.64380000000000004
aF0.33750000000000002
aF0.0848
aF0.25159999999999999
aF0.058400000000000001
aF0.67510000000000003
aF0.1242
aF0.17530000000000001
aF0.1056
aF0.2084
aF0.018499999999999999
aF0.1772
aF0.022499999999999999
aF0.1668
aF0.036799999999999999
aF0.11609999999999999
aF0.15359999999999999
aF0.20319999999999999
aF0.1071
aF0.1376
aF0.21909999999999999
aF0.1804
aF0.069400000000000003
aF0.1515
aF0.36930000000000002
aF0.13600000000000001
aF0.082900000000000001
aF0.21870000000000001
aF0.099000000000000005
aF0.57830000000000004
aF0.1201
aF0.36780000000000002
aF0.67569999999999997
aF0.81240000000000001
aF0.1065
aF0.070099999999999996
aF0.079500000000000001
aF0.034799999999999998
aF0.074800000000000005
aF0.045600000000000002
aF0.098599999999999993
aF0.041099999999999998
aF0.092600000000000002
aF0.038899999999999997
aF0.057200000000000001
aF0.041200000000000001
aF0.054399999999999997
aF0.066199999999999995
aF0.042999999999999997
aF0.1011
aF0.055599999999999997
aF0.1186
aF0.073400000000000007
aF0.085900000000000004
aF0.13500000000000001
aF0.024
aF0.2344
aF0.062100000000000002
aF0.39419999999999999
aF0.048800000000000003
aF0.151
aF0.092499999999999999
aF0.18790000000000001
aF0.0843
aF0.060299999999999999
aF0.058900000000000001
aF0.040800000000000003
aF0.25230000000000002
aF0.055800000000000002
aF0.95960000000000001
aF0.104
aF0.14649999999999999
aF0.14169999999999999
aF-0.0315
aF-0.014200000000000001
aF0.1242
aF0.10059999999999999
aF0.31929999999999997
aF0.48449999999999999
aF0.1099
aF0.2908
aF0.1179
aF0.23169999999999999
aF0.12529999999999999
aF0.1426
aF0.0252
aF0.17419999999999999
aF0.23080000000000001
aF0.50049999999999994
aF0.1265
aF0.24440000000000001
aF0.031199999999999999
aF0.20000000000000001
aF0.0212
aF0.38690000000000002
aF0.13420000000000001
aF0.18909999999999999
aF0.19500000000000001
aF0.11890000000000001
aF0.32019999999999998
aF0.048599999999999997
aF1.1845000000000001
aF1.3586
aF0.1474
aF0.074700000000000003
aF0.079000000000000001
aF0.075499999999999998
aF0.051700000000000003
aF0.030499999999999999
aF0.041300000000000003
aF0.0040000000000000001
aF0.038899999999999997
aF0.024500000000000001
aF0.025899999999999999
aF0.019199999999999998
aF0.052299999999999999
aF0.0395
aF0.1142
aF0.074899999999999994
aF0.045600000000000002
aF0.077700000000000005
aF0.040399999999999998
aF0.062100000000000002
aF0.099500000000000005
aF0.1159
aF0.31080000000000002
aF0.17610000000000001
aF0.1129
aF0.69620000000000004
aF0.13769999999999999
aF0.59960000000000002
aF0.056899999999999999
aF0.0511
aF0.019400000000000001
aF0.033700000000000001
aF0.0055999999999999999
aF0.058999999999999997
aF0.0054999999999999997
aF0.077499999999999999
aF0.012200000000000001
aF0.0309
aF0.011599999999999999
aF0.0147
aF0.0258
aF0.00059999999999999995
aF0.0061999999999999998
aF0.014500000000000001
aF0.068400000000000002
aF0.091499999999999998
aF-0.24030000000000001
aF0.1032
aF-0.1171
aF0.021899999999999999
aF0.062300000000000001
aF0.042999999999999997
aF-0.018100000000000002
aF0.0016999999999999999
aF-0.0166
aF0.0177
aF0.014200000000000001
aF0.011299999999999999
aF-0.033700000000000001
aF0.0103
aF0.14879999999999999
aF0.036299999999999999
aF0.85340000000000005
aF0.1137
aF0.1754
aF-0.018599999999999998
aF0.1666
aF-0.062
aF0.18229999999999999
aF-0.0659
aF0.074099999999999999
aF0.39629999999999999
aF0.044499999999999998
aF0.1537
aF0.1045
aF0.0458
aF0.0141
aF-0.039199999999999999
aF-0.041599999999999998
aF-0.063299999999999995
aF0.1981
aF0.14449999999999999
aF-0.0253
aF0.040300000000000002
aF-0.092600000000000002
aF0.14829999999999999
aF-0.15490000000000001
aF0.080500000000000002
aF0.068099999999999994
aF-0.12939999999999999
aF0.028899999999999999
aF0.047600000000000003
aF-0.01
aF-0.070000000000000007
aF1.6694
aF1.9182999999999999
aF0.079500000000000001
aF0.052200000000000003
aF-0.024799999999999999
aF-0.034299999999999997
aF-0.048000000000000001
aF-0.091800000000000007
aF-0.036299999999999999
aF-0.015299999999999999
aF-0.031099999999999999
aF-0.018599999999999998
aF0.00029999999999999997
aF-0.093899999999999997
aF-0.022200000000000001
aF-0.050500000000000003
aF0.0123
aF0.0028999999999999998
aF-0.048399999999999999
aF-0.041200000000000001
aF-0.017399999999999999
aF-0.22090000000000001
aF0.0064999999999999997
aF-0.014999999999999999
aF0.34570000000000001
aF-0.0293
aF-0.025399999999999999
aF0.074700000000000003
aF0.0030999999999999999
aF0.29049999999999998
aF0.26640000000000003
aF0.17530000000000001
aF0.13020000000000001
aF0.1961
aF0.1452
aF0.39610000000000001
aF0.19670000000000001
aF0.34439999999999998
aF0.2369
aF0.32940000000000003
aF0.29530000000000001
aF0.25669999999999998
aF0.2419
aF0.1341
aF0.22919999999999999
aF0.30709999999999998
aF0.1537
aF0.14860000000000001
aF0.060699999999999997
aF0.1646
aF0.094700000000000006
aF0.13930000000000001
aF0.19869999999999999
aF0.1326
aF0.097199999999999995
aF0.25240000000000001
aF0.1226
aF0.2175
aF0.1779
aF0.17530000000000001
aF0.48720000000000002
aF0.3856
aF0.85770000000000002
aF0.099099999999999994
aF0.16800000000000001
aF0.0596
aF0.1255
aF0.17810000000000001
aF0.1042
aF0.30470000000000003
aF0.056599999999999998
aF0.20449999999999999
aF0.062399999999999997
aF0.16300000000000001
aF0.076600000000000001
aF0.1729
aF0.089300000000000004
aF0.38030000000000003
aF0.1898
aF0.2319
aF0.15870000000000001
aF0.3478
aF0.091300000000000006
aF0.33000000000000002
aF0.26200000000000001
aF0.065199999999999994
aF0.075200000000000003
aF0.1186
aF0.077700000000000005
aF0.90759999999999996
aF0.104
aF0.18229999999999999
aF0.074399999999999994
aF0.1072
aF0.11070000000000001
aF0.25459999999999999
aF0.0154
aF0.18079999999999999
aF0.023900000000000001
aF0.33839999999999998
aF0.036499999999999998
aF0.35799999999999998
aF0.060100000000000001
aF0.30159999999999998
aF0.066100000000000006
aF0.28339999999999999
aF0.043099999999999999
aF0.2303
aF0.1016
aF0.1237
aF0.076100000000000001
aF0.054199999999999998
aF0.033099999999999997
aF0.030200000000000001
aF0.038100000000000002
aF0.053999999999999999
aF0.088999999999999996
aF0.1285
aF0.055399999999999998
aF0.26860000000000001
aF0.025700000000000001
aF0.26129999999999998
aF0.1152
aF0.061400000000000003
aF0.64349999999999996
aF0.3543
aF-0.40649999999999997
aF0.016500000000000001
aF0.031300000000000001
aF0.0085000000000000006
aF0.0327
aF0.0071999999999999998
aF0.035999999999999997
aF0.076700000000000004
aF0.023099999999999999
aF0.1074
aF0.029499999999999998
aF0.064000000000000001
aF0.033500000000000002
aF-0.0016999999999999999
aF0.0149
aF0.1203
aF0.0106
aF0.0746
aF0.0061000000000000004
aF0.1046
aF0.021000000000000001
aF0.24740000000000001
aF0.0088000000000000005
aF0.069000000000000006
aF0.027900000000000001
aF0.0041999999999999997
aF0.0241
aF0.48749999999999999
aF0.0339
aF0.073499999999999996
aF0.054800000000000001
aF0.1079
aF0.1721
aF0.24979999999999999
aF0.1782
aF0.26000000000000001
aF0.13800000000000001
aF0.3256
aF0.23910000000000001
aF0.73770000000000002
aF0.24479999999999999
aF0.2787
aF0.17449999999999999
aF0.13880000000000001
aF0.16539999999999999
aF0.0843
aF0.22989999999999999
aF1.1033999999999999
aF0.12280000000000001
aF0.58930000000000005
aF0.11509999999999999
aF0.078299999999999995
aF0.2893
aF0.3367
aF0.16420000000000001
aF0.15720000000000001
aF0.28710000000000002
aF-0.0051999999999999998
aF0.313
aF-0.0126
aF0.21129999999999999
aF-0.0298
aF0.2475
aF-0.034099999999999998
aF0.2792
aF0.019199999999999998
aF0.376
aF0.28010000000000002
aF0.56259999999999999
aF-0.24179999999999999
aF0.1532
aF0.61450000000000005
asS'2wayjunctions'
p17
(lp18
s.